(lp0
(lp1
F0.9958215992109132
aF1.0668959337121118
aF0.964430141363418
aF0.9958215992109132
aF1.0036874676943692
aF0.9713524635443035
aF1.030690550895732
aF1.0232970354891677
aF0.9958215992109132
aF0.9521816096681573
aa(lp2
F0.9870026151625875
aF1.0795329947475327
aF0.966853169567331
aF0.9870026151625875
aF1.0069754490314125
aF0.9943557274224311
aF0.9870026151625875
aF1.0711959617833404
aF0.9375239220643139
aF0.9825549298958766
aa(lp3
F1.0012075349984069
aF0.9392016540212744
aF1.0481920388618942
aF1.0012075349984069
aF1.0781572370121326
aF0.9612980304720319
aF1.0012075349984069
aF1.0012075349984069
aF0.9964658947554923
aF0.971855004883547
aa(lp4
F1.0025741304652567
aF0.9697769882020617
aF1.0084563300186908
aF1.040269631766147
aF1.006342591027276
aF0.9533368261278463
aF0.9773708306531113
aF1.0549747471943802
aF1.031024013081685
aF0.9558739114635462
aa(lp5
F0.9987611480142135
aF0.9967549151509262
aF1.0915361218604036
aF1.019627226004178
aF0.9337307657274323
aF1.0308103974314975
aF0.9706909832205253
aF0.9881995880426494
aF0.9588463223134868
aF1.0110425322346879
aa(lp6
F0.9615780237962761
aF0.8888255431663465
aF1.1111491274261118
aF0.9876957719660646
aF1.0297476023447718
aF1.081278403096571
aF0.9483687426457467
aF1.0503444152161483
aF0.9379151769875407
aF1.0030971933544233
aa(lp7
F0.9967787178986551
aF1.0559181218420972
aF0.9952792754853061
aF0.9446395234851325
aF1.0672932474404433
aF1.0278836463186007
aF0.9952792754853061
aF0.9915516574407287
aF0.9300972591184236
aF0.9952792754853061
aa(lp8
F0.99701926934323
aF1.0293734320787071
aF0.996265263621547
aF1.0292984661042635
aF0.99701926934323
aF1.007388174438175
aF0.9977594519596724
aF0.99701926934323
aF1.004588604353542
aF0.9442687994144043
aa(lp9
F0.9763315155688593
aF1.0108888412623385
aF1.0073903021833117
aF1.0298831189907993
aF0.997603922229766
aF1.0079728273247108
aF0.9983441048462083
aF0.997603922229766
aF1.027084957027349
aF0.9468964883368913
aa(lp10
F0.9921771038257843
aF1.0427850774810927
aF0.9622051775281955
aF0.9921771038257843
aF1.0121499376946093
aF0.9995302160856279
aF0.9921771038257843
aF1.0763704504465372
aF0.9426984107275107
aF0.9877294185590734
aa(lp11
F1.0083857981816187
aF0.9919844519210012
aF0.997967558659709
aF0.991061972358618
aF1.0307714741197536
aF1.0119007348076245
aF0.9507124739864117
aF1.0434918293044448
aF0.9798688934694413
aF0.9938548131913747
aa(lp12
F1.0102702613503607
aF0.9849797537694714
aF1.0900966558714098
aF1.0102702613503607
aF0.9043309499190118
aF1.0503363834902084
aF1.0387021954946032
aF0.9144476420194143
aF0.9932998794039666
aF1.003266017331193
aa(lp13
F0.9752992613845771
aF0.9795431731086685
aF1.096444160568748
aF0.9723575411735483
aF1.0366377823847897
aF0.9696470778113325
aF1.0178902814660937
aF0.992564225282959
aF1.00996815087921
aF0.9496483459400724
aa(lp14
F0.9952152365972216
aF1.0348205234444987
aF0.977509223292586
aF0.9952152365972216
aF1.0565579039501536
aF0.9252765915978821
aF1.1026296553851476
aF0.9666386703109816
aF1.004453478856936
aF0.9416834799673717
aa(lp15
F0.9179246171114332
aF0.9753420930095285
aF1.0039270257392956
aF1.000411272226634
aF1.0218224783962726
aF1.0905613469694588
aF1.070889852732542
aF1.0233785198702445
aF0.9204007009350637
aF0.9753420930095285
aa(lp16
F0.8971702818270998
aF0.952163254226993
aF0.9796370259212758
aF1.0769768860867752
aF1.0298298672625394
aF1.0257185343734674
aF1.0195766616270927
aF1.079518497842118
aF0.9725464995084605
aF0.9668624913241779
aa(lp17
F0.994323553197201
aF0.9949491921578679
aF0.995424889871354
aF0.9768763663074465
aF0.9418107029866504
aF1.0767786747329389
aF1.075982962840982
aF0.9963449309413579
aF1.0039142659516698
aF0.9435944610125322
aa(lp18
F1.0053411129495329
aF1.0810493602063926
aF0.9998111819249076
aF1.0236909318630547
aF0.9897638911241836
aF0.936758126224754
aF0.9607921307500189
aF1.0383960472912879
aF1.0144453131785927
aF0.9499519044872758
aa(lp19
F1.0376044329642777
aF0.902197704785763
aF0.9483456134266339
aF1.077486317336508
aF1.0309842897659653
aF1.0236024604195098
aF0.9849702831798245
aF1.0800279290918506
aF0.9474090464557545
aF0.9673719225739106
aa(lp20
F0.9355807688481462
aF1.0258398017841035
aF1.0211393520538323
aF1.032808487118659
aF0.9712972546521179
aF1.0038545441435713
aF1.0451549591055744
aF1.0119872114599155
aF1.0063287128866085
aF0.9460089079474708
aa(lp21
F0.9945261061168006
aF1.0003928028092577
aF0.946662162216606
aF0.973315000890562
aF1.0579636929810459
aF0.973315000890562
aF1.080786942157308
aF1.0108058776665616
aF0.9934398618052483
aF0.9687925524660477
aa(lp22
F1.005140103055625
aF0.9927455321200715
aF1.0437980022319584
aF1.0156178429733234
aF0.968073547345933
aF1.0268010144006428
aF0.9765953367302369
aF0.9841902050117948
aF0.9800052669265801
aF1.0070331492038331
aa(lp23
F0.9733444288548228
aF1.001530443771162
aF1.0484092977416188
aF0.979437441198126
aF0.9578584030970216
aF1.076750814257602
aF1.0849794554003833
aF1.0095679871583878
aF0.906590168223207
aF0.9615315602976718
aa(lp24
F1.0296583194179147
aF0.9937069664912945
aF0.9918864488566003
aF0.9235078491751061
aF1.0639004208117373
aF1.034923720131454
aF0.9981108182405865
aF1.0457145755289865
aF0.9267044324897177
aF0.9918864488566003
aa(lp25
F1.0098016128220584
aF1.0882534400079706
aF1.004271681797433
aF1.0281514317355802
aF0.9942243909967091
aF0.9412186260972795
aF0.9652526306225444
aF1.0428565471638134
aF0.9715572343968097
aF0.9544124043598013
aa(lp26
F1.014345921026758
aF0.9956235305597401
aF0.9960992282732262
aF0.959354773110441
aF0.9424850413885225
aF1.0819098030029375
aF1.0963873320206394
aF0.9587181203282681
aF0.9589770220162399
aF0.9960992282732262
aa(lp27
F0.9757780775917106
aF0.9984081661717581
aF1.0390767353829387
aF0.9833192520846925
aF1.0418304959081883
aF0.9806087887224767
aF0.9976223391858058
aF0.9579497410366846
aF1.0284929013017117
aF0.9969135026140326
aa(lp28
F1.00057301299845
aF0.9841716667378325
aF0.9901547734765404
aF1.032284938722346
aF1.013396643518366
aF0.9667936093090583
aF0.991254767157292
aF1.0436846241031188
aF0.991254767157292
aF0.9864311968197016
aa(lp29
F0.9663396699153596
aF1.1129173951965785
aF1.019968840808207
aF0.9575272213161997
aF1.041344489578005
aF0.9917367900718003
aF0.998097345845625
aF0.9420126714622475
aF0.9809372298108201
aF0.9891183459951569
aa(lp30
F0.9252751956016304
aF0.9973088171653326
aF0.977443505632669
aF1.0008302414205796
aF1.021191494357342
aF1.021191494357342
aF1.0122411734801586
aF1.059820031217108
aF0.9825579190087933
aF1.0021401277590447
aa(lp31
F0.9524551772897141
aF0.9820669087349458
aF0.9820669087349458
aF1.0904781842329552
aF1.0322140676393
aF1.0312300810997452
aF1.0378295051416222
aF0.9963590852923274
aF0.9579914721551636
aF0.937308609679281
aa(lp32
F0.9226775896233301
aF0.9642720347575005
aF1.0086799982511925
aF1.005164244738531
aF1.0265754509081695
aF1.024057989790059
aF1.0151076689128757
aF1.0430339853850685
aF0.9854244144415104
aF1.0050066231917618
aa(lp33
F0.9398592376898132
aF1.007791340993989
aF1.0059731386415516
aF0.9990675523404606
aF1.0212094287015345
aF0.974606394492227
aF0.9990675523404606
aF1.0514974092862874
aF0.9990675523404606
aF1.0018603931732173
aa(lp34
F0.9613502505772388
aF0.9564584400128923
aF1.0846222759427881
aF0.9740545239491966
aF0.9954657301188352
aF0.9929482690007247
aF1.032529829083262
aF1.0624707301089225
aF0.9076473404344567
aF1.032452610771683
aa(lp35
F1.0402630040334881
aF0.9855457962207911
aF1.0454064537241663
aF0.9649782466223819
aF0.9959482466594927
aF1.0053884264126767
aF1.0225923972923197
aF0.9950195213177317
aF1.0025888563280436
aF0.9422690513889059
aa(lp36
F0.9757468626823234
aF1.0103041883758026
aF1.0068056492967759
aF1.02977944574394
aF1.0403020188481158
aF0.9775079991174939
aF1.0103041883758026
aF0.9447632114416482
aF0.994182247742295
aF1.0103041883758026
aa(lp37
F0.9670518044796036
aF0.9531982882989694
aF0.9918776301155984
aF0.9938932205675339
aF1.1179517790873925
aF1.0020404015968885
aF1.0131429129867935
aF0.9755842125639481
aF1.0118816056474178
aF0.9733781446558532
aa(lp38
F1.000774450855468
aF0.9732906323230195
aF1.0901916197830992
aF0.9661050003878994
aF0.9961462750832493
aF1.0065151801781942
aF1.0237191510578372
aF0.9961462750832493
aF1.0037156100935611
aF0.9433958051544235
aa(lp39
F0.9832006883630696
aF0.9753615954659254
aF0.9770638080758594
aF0.9790793985277949
aF1.1031379570476534
aF0.9872265795571494
aF0.9983290909470545
aF0.9796254831371509
aF1.0306325554039695
aF0.9863428434743727
aa(lp40
F0.9609174752141487
aF0.9470639590335145
aF0.9857433008501435
aF0.9877588913020791
aF1.1118174498219375
aF0.9959060723314336
aF1.0070085837213385
aF0.9694498832984932
aF1.0393120481782536
aF0.9950223362486569
aa(lp41
F0.9816379329586448
aF1.0847924681798409
aF1.0577095678038644
aF1.0017550953634313
aF0.9419624972045884
aF1.0515286380223212
aF0.9757736695727747
aF1.0337130492309654
aF1.0280906262115297
aF0.8430364554520396
aa(lp42
F1.0718891141824098
aF1.0092503183153316
aF1.064298259572878
aF0.9388919911246075
aF0.9923669331380831
aF0.9800840904352217
aF1.0270837171369995
aF0.9832872755300792
aF0.9932318373551331
aF0.9396164632092574
aa(lp43
F1.015655043233316
aF0.9635251656620588
aF1.0777618603490517
aF0.988207850785761
aF0.969816076065524
aF0.9860878534069882
aF1.0349026346064023
aF1.0050638490019979
aF0.9919431800802109
aF0.967036486808691
aa(lp44
F0.953760105927159
aF0.9580040176512503
aF1.0808732959506269
aF0.9798778540969475
aF1.0637099485314874
aF0.9481079223539144
aF1.0082451286182672
aF1.0307157698262925
aF0.9785618741469019
aF0.9981440828971533
aa(lp45
F0.9871549615666794
aF1.0153409764830188
aF1.0622198304534756
aF0.9932479739099827
aF0.9906689917088802
aF0.9919549979353093
aF0.9991907810931842
aF1.006785649374742
aF0.9441269105539227
aF1.0093089269208053
aa(lp46
F1.0005601303655387
aF1.0020849769048557
aF1.1163216715918485
aF1.0249572877581077
aF0.9206392552461594
aF1.036140459185427
aF0.9760210449744547
aF0.9500932731955777
aF1.029196420763882
aF0.9439854800141494
aa(lp47
F1.0413897577990057
aF1.0165681974807017
aF1.0716161387382481
aF0.9462098702899776
aF0.9996848123034532
aF1.0185797366010885
aF1.0004249949198956
aF0.9996848123034532
aF0.9589073371895496
aF0.9469343423746275
aa(lp48
F0.990872536255579
aF1.0232266989910561
aF0.990118530533896
aF1.0698290708490013
aF1.0056625292996992
aF1.001241441350524
aF0.9916127188720214
aF0.990872536255579
aF0.9984418712658909
aF0.9381220663267533
aa(lp49
F1.0035015349084169
aF1.0014953020451296
aF1.1157319967321224
aF1.0243676128983816
aF0.9200495803864335
aF1.035550784325701
aF0.9754313701147288
aF0.9495035983358517
aF0.9989226346364986
aF0.9754455856167358
aa(lp50
F0.9587996209573272
aF1.01198032466124
aF0.9315187705609048
aF0.9914489076880741
aF1.0873776834269455
aF0.9877185618619617
aF1.0072294294221213
aF1.1021017307103504
aF0.971404404275034
aF0.9504205664360404
aa.